
Allocating common symbols
Common symbol       size              file

__stm32_tick        0x4               obj/exceptions.o

Memory Configuration

Name             Origin             Length             Attributes
RAM              0x0000000020000000 0x0000000000002000 xrw
FLASH            0x0000000008000000 0x0000000000020000 xr
*default*        0x0000000000000000 0xffffffffffffffff

Linker script and memory map

LOAD obj/exceptions.o
LOAD obj/main.o
LOAD obj/misc.o
LOAD obj/stm32f10x_gpio.o
LOAD obj/stm32f10x_rcc.o
LOAD obj/stm32f10x_tim.o
LOAD obj/system_stm32f10x.o
LOAD obj/startup.o
                0x0000000020002000                _estack = 0x20002000
                0x0000000000000000                . = 0x0

.isr_vector     0x0000000020000000      0x1d0 load address 0x0000000008000000
                0x0000000020000000                . = ALIGN (0x200)
                0x0000000008000000                __isr_vector_load = LOADADDR (.isr_vector)
                0x0000000020000000                __isr_vector_start = .
 *(.isr_vector)
 .isr_vector    0x0000000020000000      0x1d0 obj/startup.o
                0x0000000020000000                g_pfnVectors
                0x00000000200001d0                . = ALIGN (0x4)
                0x00000000200001d0                __isr_vector_end = .

.text           0x00000000080001d0     0x3248
 *(.text)
 .text          0x00000000080001d0       0x74 obj/exceptions.o
                0x00000000080001d0                NMI_Handler
                0x00000000080001dc                HardFault_Handler
                0x00000000080001e4                MemManage_Handler
                0x00000000080001ec                BusFault_Handler
                0x00000000080001f4                UsageFault_Handler
                0x00000000080001fc                SVC_Handler
                0x0000000008000208                DebugMon_Handler
                0x0000000008000214                PendSV_Handler
                0x0000000008000220                SysTick_Handler
 .text          0x0000000008000244       0x14 obj/main.o
                0x0000000008000244                main
 .text          0x0000000008000258      0x1c4 obj/misc.o
                0x0000000008000258                NVIC_PriorityGroupConfig
                0x0000000008000280                NVIC_Init
                0x0000000008000350                NVIC_SetVectorTable
                0x000000000800037c                NVIC_SystemLPConfig
                0x00000000080003d0                SysTick_CLKSourceConfig
 .text          0x000000000800041c      0x618 obj/stm32f10x_gpio.o
                0x000000000800041c                GPIO_DeInit
                0x000000000800050c                GPIO_AFIODeInit
                0x0000000008000524                GPIO_Init
                0x000000000800069c                GPIO_StructInit
                0x00000000080006c4                GPIO_ReadInputDataBit
                0x00000000080006f8                GPIO_ReadInputData
                0x0000000008000714                GPIO_ReadOutputDataBit
                0x0000000008000748                GPIO_ReadOutputData
                0x0000000008000764                GPIO_SetBits
                0x0000000008000780                GPIO_ResetBits
                0x000000000800079c                GPIO_WriteBit
                0x00000000080007cc                GPIO_Write
                0x00000000080007e8                GPIO_PinLockConfig
                0x000000000800082c                GPIO_EventOutputConfig
                0x0000000008000878                GPIO_EventOutputCmd
                0x0000000008000898                GPIO_PinRemapConfig
                0x000000000800098c                GPIO_EXTILineConfig
                0x0000000008000a18                GPIO_ETH_MediaInterfaceConfig
 .text          0x0000000008000a34      0x980 obj/stm32f10x_rcc.o
                0x0000000008000a34                RCC_DeInit
                0x0000000008000ad0                RCC_HSEConfig
                0x0000000008000b58                RCC_WaitForHSEStartUp
                0x0000000008000ba8                RCC_AdjustHSICalibrationValue
                0x0000000008000bec                RCC_HSICmd
                0x0000000008000c0c                RCC_PLLConfig
                0x0000000008000c50                RCC_PLLCmd
                0x0000000008000c70                RCC_SYSCLKConfig
                0x0000000008000cb0                RCC_GetSYSCLKSource
                0x0000000008000cd0                RCC_HCLKConfig
                0x0000000008000d10                RCC_PCLK1Config
                0x0000000008000d50                RCC_PCLK2Config
                0x0000000008000d90                RCC_ITConfig
                0x0000000008000dec                RCC_USBCLKConfig
                0x0000000008000e08                RCC_ADCCLKConfig
                0x0000000008000e48                RCC_LSEConfig
                0x0000000008000e9c                RCC_LSICmd
                0x0000000008000ebc                RCC_RTCCLKConfig
                0x0000000008000ee8                RCC_RTCCLKCmd
                0x0000000008000f08                RCC_GetClocksFreq
                0x00000000080010c4                RCC_AHBPeriphClockCmd
                0x0000000008001114                RCC_APB2PeriphClockCmd
                0x0000000008001164                RCC_APB1PeriphClockCmd
                0x00000000080011b4                RCC_APB2PeriphResetCmd
                0x0000000008001204                RCC_APB1PeriphResetCmd
                0x0000000008001254                RCC_BackupResetCmd
                0x0000000008001274                RCC_ClockSecuritySystemCmd
                0x0000000008001294                RCC_MCOConfig
                0x00000000080012b4                RCC_GetFlagStatus
                0x0000000008001338                RCC_ClearFlag
                0x000000000800135c                RCC_GetITStatus
                0x0000000008001394                RCC_ClearITPendingBit
 .text          0x00000000080013b4     0x1c80 obj/stm32f10x_tim.o
                0x00000000080013b4                TIM_DeInit
                0x0000000008001600                TIM_TimeBaseInit
                0x0000000008001718                TIM_OC1Init
                0x0000000008001838                TIM_OC2Init
                0x000000000800194c                TIM_OC3Init
                0x0000000008001a5c                TIM_OC4Init
                0x0000000008001b30                TIM_ICInit
                0x0000000008001bd8                TIM_PWMIConfig
                0x0000000008001c90                TIM_BDTRConfig
                0x0000000008001ce0                TIM_TimeBaseStructInit
                0x0000000008001d14                TIM_OCStructInit
                0x0000000008001d58                TIM_ICStructInit
                0x0000000008001d88                TIM_BDTRStructInit
                0x0000000008001dc4                TIM_Cmd
                0x0000000008001e04                TIM_CtrlPWMOutputs
                0x0000000008001e50                TIM_ITConfig
                0x0000000008001e98                TIM_GenerateEvent
                0x0000000008001eb4                TIM_DMAConfig
                0x0000000008001edc                TIM_DMACmd
                0x0000000008001f24                TIM_InternalClockConfig
                0x0000000008001f48                TIM_ITRxExternalClockConfig
                0x0000000008001f74                TIM_TIxExternalClockConfig
                0x0000000008001fc8                TIM_ETRClockMode1Config
                0x0000000008002018                TIM_ETRClockMode2Config
                0x0000000008002048                TIM_ETRConfig
                0x0000000008002090                TIM_PrescalerConfig
                0x00000000080020b8                TIM_CounterModeConfig
                0x00000000080020f0                TIM_SelectInputTrigger
                0x0000000008002128                TIM_EncoderInterfaceConfig
                0x00000000080021b4                TIM_ForcedOC1Config
                0x00000000080021ec                TIM_ForcedOC2Config
                0x0000000008002228                TIM_ForcedOC3Config
                0x0000000008002260                TIM_ForcedOC4Config
                0x000000000800229c                TIM_ARRPreloadConfig
                0x00000000080022dc                TIM_SelectCOM
                0x000000000800231c                TIM_SelectCCDMA
                0x000000000800235c                TIM_CCPreloadControl
                0x000000000800239c                TIM_OC1PreloadConfig
                0x00000000080023d4                TIM_OC2PreloadConfig
                0x0000000008002410                TIM_OC3PreloadConfig
                0x0000000008002448                TIM_OC4PreloadConfig
                0x0000000008002484                TIM_OC1FastConfig
                0x00000000080024bc                TIM_OC2FastConfig
                0x00000000080024f8                TIM_OC3FastConfig
                0x0000000008002530                TIM_OC4FastConfig
                0x000000000800256c                TIM_ClearOC1Ref
                0x00000000080025a4                TIM_ClearOC2Ref
                0x00000000080025e0                TIM_ClearOC3Ref
                0x0000000008002618                TIM_ClearOC4Ref
                0x0000000008002654                TIM_OC1PolarityConfig
                0x000000000800268c                TIM_OC1NPolarityConfig
                0x00000000080026c4                TIM_OC2PolarityConfig
                0x0000000008002700                TIM_OC2NPolarityConfig
                0x000000000800273c                TIM_OC3PolarityConfig
                0x0000000008002778                TIM_OC3NPolarityConfig
                0x00000000080027b4                TIM_OC4PolarityConfig
                0x00000000080027f0                TIM_CCxCmd
                0x0000000008002844                TIM_CCxNCmd
                0x0000000008002898                TIM_SelectOCxM
                0x0000000008002940                TIM_UpdateDisableConfig
                0x0000000008002980                TIM_UpdateRequestConfig
                0x00000000080029c0                TIM_SelectHallSensor
                0x0000000008002a00                TIM_SelectOnePulseMode
                0x0000000008002a38                TIM_SelectOutputTrigger
                0x0000000008002a70                TIM_SelectSlaveMode
                0x0000000008002aa8                TIM_SelectMasterSlaveMode
                0x0000000008002ae0                TIM_SetCounter
                0x0000000008002afc                TIM_SetAutoreload
                0x0000000008002b18                TIM_SetCompare1
                0x0000000008002b34                TIM_SetCompare2
                0x0000000008002b50                TIM_SetCompare3
                0x0000000008002b6c                TIM_SetCompare4
                0x0000000008002b8c                TIM_SetIC1Prescaler
                0x0000000008002bc4                TIM_SetIC2Prescaler
                0x0000000008002c00                TIM_SetIC3Prescaler
                0x0000000008002c38                TIM_SetIC4Prescaler
                0x0000000008002c74                TIM_SetClockDivision
                0x0000000008002cac                TIM_GetCapture1
                0x0000000008002cc8                TIM_GetCapture2
                0x0000000008002ce4                TIM_GetCapture3
                0x0000000008002d00                TIM_GetCapture4
                0x0000000008002d1c                TIM_GetCounter
                0x0000000008002d38                TIM_GetPrescaler
                0x0000000008002d54                TIM_GetFlagStatus
                0x0000000008002d8c                TIM_ClearFlag
                0x0000000008002dac                TIM_GetITStatus
                0x0000000008002e00                TIM_ClearITPendingBit
 .text          0x0000000008003034      0x380 obj/system_stm32f10x.o
                0x0000000008003034                SystemInit
                0x00000000080030cc                SystemCoreClockUpdate
 .text          0x00000000080033b4       0x14 obj/startup.o
 *(.text*)
 .text.Reset_Handler
                0x00000000080033c8       0x4c obj/startup.o
                0x00000000080033c8                Reset_Handler
 .text.Default_Handler
                0x0000000008003414        0x4 obj/startup.o
                0x0000000008003414                EXTI2_IRQHandler
                0x0000000008003414                TIM1_CC_IRQHandler
                0x0000000008003414                PVD_IRQHandler
                0x0000000008003414                EXTI3_IRQHandler
                0x0000000008003414                EXTI0_IRQHandler
                0x0000000008003414                I2C2_EV_IRQHandler
                0x0000000008003414                TIM1_UP_TIM16_IRQHandler
                0x0000000008003414                SPI1_IRQHandler
                0x0000000008003414                TAMPER_IRQHandler
                0x0000000008003414                TIM6_DAC_IRQHandler
                0x0000000008003414                DMA1_Channel4_IRQHandler
                0x0000000008003414                ADC1_IRQHandler
                0x0000000008003414                USART3_IRQHandler
                0x0000000008003414                RTC_IRQHandler
                0x0000000008003414                DMA1_Channel7_IRQHandler
                0x0000000008003414                TIM4_IRQHandler
                0x0000000008003414                I2C1_EV_IRQHandler
                0x0000000008003414                DMA1_Channel6_IRQHandler
                0x0000000008003414                TIM3_IRQHandler
                0x0000000008003414                RCC_IRQHandler
                0x0000000008003414                DMA1_Channel1_IRQHandler
                0x0000000008003414                Default_Handler
                0x0000000008003414                CEC_IRQHandler
                0x0000000008003414                EXTI15_10_IRQHandler
                0x0000000008003414                TIM7_IRQHandler
                0x0000000008003414                EXTI9_5_IRQHandler
                0x0000000008003414                SPI2_IRQHandler
                0x0000000008003414                DMA1_Channel5_IRQHandler
                0x0000000008003414                EXTI4_IRQHandler
                0x0000000008003414                TIM1_TRG_COM_TIM17_IRQHandler
                0x0000000008003414                DMA1_Channel3_IRQHandler
                0x0000000008003414                WWDG_IRQHandler
                0x0000000008003414                TIM2_IRQHandler
                0x0000000008003414                EXTI1_IRQHandler
                0x0000000008003414                RTCAlarm_IRQHandler
                0x0000000008003414                USART2_IRQHandler
                0x0000000008003414                I2C2_ER_IRQHandler
                0x0000000008003414                DMA1_Channel2_IRQHandler
                0x0000000008003414                FLASH_IRQHandler
                0x0000000008003414                USART1_IRQHandler
                0x0000000008003414                I2C1_ER_IRQHandler
                0x0000000008003414                TIM1_BRK_TIM15_IRQHandler
 *(.rodata)
 *(.rodata*)
                0x0000000008003418                _sidata = LOADADDR (.data)

.glue_7         0x0000000008003418        0x0
 .glue_7        0x0000000000000000        0x0 linker stubs

.glue_7t        0x0000000008003418        0x0
 .glue_7t       0x0000000000000000        0x0 linker stubs

.vfp11_veneer   0x0000000008003418        0x0
 .vfp11_veneer  0x0000000000000000        0x0 linker stubs

.v4_bx          0x0000000008003418        0x0
 .v4_bx         0x0000000000000000        0x0 linker stubs

.iplt           0x0000000008003418        0x0
 .iplt          0x0000000000000000        0x0 obj/exceptions.o

.rel.dyn        0x0000000008003418        0x0
 .rel.iplt      0x0000000000000000        0x0 obj/exceptions.o

.data           0x00000000200001d0       0x28 load address 0x0000000008003418
                0x00000000200001d0                . = ALIGN (0x4)
                0x00000000200001d0                _sdata = .
 *(.data)
 .data          0x00000000200001d0        0x0 obj/exceptions.o
 .data          0x00000000200001d0        0x0 obj/main.o
 .data          0x00000000200001d0        0x0 obj/misc.o
 .data          0x00000000200001d0        0x0 obj/stm32f10x_gpio.o
 .data          0x00000000200001d0       0x14 obj/stm32f10x_rcc.o
 .data          0x00000000200001e4        0x0 obj/stm32f10x_tim.o
 .data          0x00000000200001e4       0x14 obj/system_stm32f10x.o
                0x00000000200001e4                SystemCoreClock
                0x00000000200001e8                AHBPrescTable
 .data          0x00000000200001f8        0x0 obj/startup.o
 *(.data*)
                0x00000000200001f8                . = ALIGN (0x4)
                0x00000000200001f8                _edata = .

.igot.plt       0x00000000200001f8        0x0 load address 0x0000000008003440
 .igot.plt      0x0000000000000000        0x0 obj/exceptions.o

.bss            0x00000000200001f8        0x4 load address 0x0000000008003440
                0x00000000200001f8                . = ALIGN (0x4)
                0x00000000200001f8                _sbss = .
                0x00000000200001f8                __bss_start__ = _sbss
 *(.bss)
 .bss           0x00000000200001f8        0x0 obj/exceptions.o
 .bss           0x00000000200001f8        0x0 obj/main.o
 .bss           0x00000000200001f8        0x0 obj/misc.o
 .bss           0x00000000200001f8        0x0 obj/stm32f10x_gpio.o
 .bss           0x00000000200001f8        0x0 obj/stm32f10x_rcc.o
 .bss           0x00000000200001f8        0x0 obj/stm32f10x_tim.o
 .bss           0x00000000200001f8        0x0 obj/system_stm32f10x.o
 .bss           0x00000000200001f8        0x0 obj/startup.o
 *(.bss*)
 *(COMMON)
 COMMON         0x00000000200001f8        0x4 obj/exceptions.o
                0x00000000200001f8                __stm32_tick
                0x00000000200001fc                . = ALIGN (0x4)
                0x00000000200001fc                _ebss = .
                0x00000000200001fc                __bss_end__ = _ebss
                0x00000000200001fc                _end = .
                0x00000000200001fc                PROVIDE (end, .)
OUTPUT(out/main.elf elf32-littlearm)

.debug_info     0x0000000000000000     0x354b
 .debug_info    0x0000000000000000      0x139 obj/exceptions.o
 .debug_info    0x0000000000000139       0xaa obj/main.o
 .debug_info    0x00000000000001e3      0x4d7 obj/misc.o
 .debug_info    0x00000000000006ba      0x6b4 obj/stm32f10x_gpio.o
 .debug_info    0x0000000000000d6e      0x85a obj/stm32f10x_rcc.o
 .debug_info    0x00000000000015c8     0x1c25 obj/stm32f10x_tim.o
 .debug_info    0x00000000000031ed      0x311 obj/system_stm32f10x.o
 .debug_info    0x00000000000034fe       0x4d obj/startup.o

.debug_abbrev   0x0000000000000000      0x8e2
 .debug_abbrev  0x0000000000000000       0x78 obj/exceptions.o
 .debug_abbrev  0x0000000000000078       0x6d obj/main.o
 .debug_abbrev  0x00000000000000e5      0x156 obj/misc.o
 .debug_abbrev  0x000000000000023b      0x1ca obj/stm32f10x_gpio.o
 .debug_abbrev  0x0000000000000405      0x1bc obj/stm32f10x_rcc.o
 .debug_abbrev  0x00000000000005c1      0x1b2 obj/stm32f10x_tim.o
 .debug_abbrev  0x0000000000000773      0x15d obj/system_stm32f10x.o
 .debug_abbrev  0x00000000000008d0       0x12 obj/startup.o

.debug_aranges  0x0000000000000000      0x108
 .debug_aranges
                0x0000000000000000       0x20 obj/exceptions.o
 .debug_aranges
                0x0000000000000020       0x20 obj/main.o
 .debug_aranges
                0x0000000000000040       0x20 obj/misc.o
 .debug_aranges
                0x0000000000000060       0x20 obj/stm32f10x_gpio.o
 .debug_aranges
                0x0000000000000080       0x20 obj/stm32f10x_rcc.o
 .debug_aranges
                0x00000000000000a0       0x20 obj/stm32f10x_tim.o
 .debug_aranges
                0x00000000000000c0       0x20 obj/system_stm32f10x.o
 .debug_aranges
                0x00000000000000e0       0x28 obj/startup.o

.debug_line     0x0000000000000000      0xb52
 .debug_line    0x0000000000000000       0xcd obj/exceptions.o
 .debug_line    0x00000000000000cd       0x59 obj/main.o
 .debug_line    0x0000000000000126       0xcf obj/misc.o
 .debug_line    0x00000000000001f5      0x18c obj/stm32f10x_gpio.o
 .debug_line    0x0000000000000381      0x1e9 obj/stm32f10x_rcc.o
 .debug_line    0x000000000000056a      0x470 obj/stm32f10x_tim.o
 .debug_line    0x00000000000009da      0x10f obj/system_stm32f10x.o
 .debug_line    0x0000000000000ae9       0x69 obj/startup.o

.debug_str      0x0000000000000000     0x17c6
 .debug_str     0x0000000000000000      0x1cd obj/exceptions.o
                                        0x201 (size before relaxing)
 .debug_str     0x00000000000001cd       0x10 obj/main.o
                                        0x15a (size before relaxing)
 .debug_str     0x00000000000001dd      0x24d obj/misc.o
                                        0x3a0 (size before relaxing)
 .debug_str     0x000000000000042a      0x369 obj/stm32f10x_gpio.o
                                        0x4f6 (size before relaxing)
 .debug_str     0x0000000000000793      0x425 obj/stm32f10x_rcc.o
                                        0x5f7 (size before relaxing)
 .debug_str     0x0000000000000bb8      0xb80 obj/stm32f10x_tim.o
                                        0xdba (size before relaxing)
 .debug_str     0x0000000000001738       0x8e obj/system_stm32f10x.o
                                        0x289 (size before relaxing)

.comment        0x0000000000000000       0x3c
 .comment       0x0000000000000000       0x3c obj/exceptions.o
                                         0x3d (size before relaxing)
 .comment       0x0000000000000000       0x3d obj/main.o
 .comment       0x0000000000000000       0x3d obj/misc.o
 .comment       0x0000000000000000       0x3d obj/stm32f10x_gpio.o
 .comment       0x0000000000000000       0x3d obj/stm32f10x_rcc.o
 .comment       0x0000000000000000       0x3d obj/stm32f10x_tim.o
 .comment       0x0000000000000000       0x3d obj/system_stm32f10x.o

.ARM.attributes
                0x0000000000000000       0x35
 .ARM.attributes
                0x0000000000000000       0x37 obj/exceptions.o
 .ARM.attributes
                0x0000000000000037       0x37 obj/main.o
 .ARM.attributes
                0x000000000000006e       0x37 obj/misc.o
 .ARM.attributes
                0x00000000000000a5       0x37 obj/stm32f10x_gpio.o
 .ARM.attributes
                0x00000000000000dc       0x37 obj/stm32f10x_rcc.o
 .ARM.attributes
                0x0000000000000113       0x37 obj/stm32f10x_tim.o
 .ARM.attributes
                0x000000000000014a       0x37 obj/system_stm32f10x.o
 .ARM.attributes
                0x0000000000000181       0x21 obj/startup.o

.debug_frame    0x0000000000000000     0x11e8
 .debug_frame   0x0000000000000000       0xe8 obj/exceptions.o
 .debug_frame   0x00000000000000e8       0x2c obj/main.o
 .debug_frame   0x0000000000000114       0x9c obj/misc.o
 .debug_frame   0x00000000000001b0      0x210 obj/stm32f10x_gpio.o
 .debug_frame   0x00000000000003c0      0x388 obj/stm32f10x_rcc.o
 .debug_frame   0x0000000000000748      0xa20 obj/stm32f10x_tim.o
 .debug_frame   0x0000000000001168       0x80 obj/system_stm32f10x.o

.debug_ranges   0x0000000000000000       0x20
 .debug_ranges  0x0000000000000000       0x20 obj/startup.o
